; ModuleID = '4/1991.c'
source_filename = "4/1991.c"
target datalayout = "e-m:e-p270:32:32-p271:32:32-p272:64:64-i64:64-f80:128-n8:16:32:64-S128"
target triple = "x86_64-pc-linux-gnu"

@.str = private unnamed_addr constant [6 x i8] c"%d %d\00", align 1
@.str.1 = private unnamed_addr constant [3 x i8] c"%d\00", align 1
@.str.2 = private unnamed_addr constant [4 x i8] c"%d\0A\00", align 1

; Function Attrs: noinline nounwind uwtable
define dso_local i32 @main() #0 {
  %1 = alloca i32, align 4
  %2 = alloca i32, align 4
  %3 = alloca i32, align 4
  %4 = alloca i32, align 4
  %5 = alloca i32, align 4
  %6 = alloca i32, align 4
  %7 = alloca i32, align 4
  %8 = alloca i32, align 4
  %9 = alloca i32, align 4
  %10 = alloca i32*, align 8
  %11 = alloca i32*, align 8
  store i32 0, i32* %1, align 4
  %12 = call i32 (i8*, ...) @__isoc99_scanf(i8* getelementptr inbounds ([6 x i8], [6 x i8]* @.str, i64 0, i64 0), i32* %2, i32* %3)
  %13 = load i32, i32* %2, align 4
  %14 = load i32, i32* %3, align 4
  %15 = mul nsw i32 %13, %14
  store i32 %15, i32* %4, align 4
  %16 = load i32, i32* %4, align 4
  %17 = sext i32 %16 to i64
  %18 = mul i64 %17, 4
  %19 = call noalias i8* @malloc(i64 %18) #3
  %20 = bitcast i8* %19 to i32*
  store i32* %20, i32** %11, align 8
  %21 = load i32*, i32** %11, align 8
  store i32* %21, i32** %10, align 8
  br label %22

22:                                               ; preds = %32, %0
  %23 = load i32*, i32** %10, align 8
  %24 = load i32*, i32** %11, align 8
  %25 = load i32, i32* %4, align 4
  %26 = sext i32 %25 to i64
  %27 = getelementptr inbounds i32, i32* %24, i64 %26
  %28 = icmp ult i32* %23, %27
  br i1 %28, label %29, label %35

29:                                               ; preds = %22
  %30 = load i32*, i32** %10, align 8
  %31 = call i32 (i8*, ...) @__isoc99_scanf(i8* getelementptr inbounds ([3 x i8], [3 x i8]* @.str.1, i64 0, i64 0), i32* %30)
  br label %32

32:                                               ; preds = %29
  %33 = load i32*, i32** %10, align 8
  %34 = getelementptr inbounds i32, i32* %33, i32 1
  store i32* %34, i32** %10, align 8
  br label %22

35:                                               ; preds = %22
  store i32 2, i32* %7, align 4
  br label %36

36:                                               ; preds = %84, %35
  %37 = load i32, i32* %7, align 4
  %38 = load i32, i32* %2, align 4
  %39 = load i32, i32* %3, align 4
  %40 = add nsw i32 %38, %39
  %41 = icmp sle i32 %37, %40
  br i1 %41, label %42, label %87

42:                                               ; preds = %36
  store i32 1, i32* %6, align 4
  br label %43

43:                                               ; preds = %80, %42
  %44 = load i32, i32* %6, align 4
  %45 = load i32, i32* %7, align 4
  %46 = icmp slt i32 %44, %45
  br i1 %46, label %47, label %83

47:                                               ; preds = %43
  %48 = load i32, i32* %7, align 4
  %49 = load i32, i32* %6, align 4
  %50 = sub nsw i32 %48, %49
  store i32 %50, i32* %5, align 4
  %51 = load i32, i32* %3, align 4
  %52 = load i32, i32* %6, align 4
  %53 = sub nsw i32 %52, 1
  %54 = mul nsw i32 %51, %53
  %55 = load i32, i32* %5, align 4
  %56 = add nsw i32 %54, %55
  store i32 %56, i32* %9, align 4
  %57 = load i32, i32* %5, align 4
  %58 = load i32, i32* %3, align 4
  %59 = icmp sle i32 %57, %58
  br i1 %59, label %60, label %79

60:                                               ; preds = %47
  %61 = load i32, i32* %6, align 4
  %62 = load i32, i32* %2, align 4
  %63 = icmp sle i32 %61, %62
  br i1 %63, label %64, label %79

64:                                               ; preds = %60
  %65 = load i32, i32* %9, align 4
  %66 = icmp sge i32 %65, 1
  br i1 %66, label %67, label %79

67:                                               ; preds = %64
  %68 = load i32, i32* %9, align 4
  %69 = load i32, i32* %4, align 4
  %70 = icmp sle i32 %68, %69
  br i1 %70, label %71, label %79

71:                                               ; preds = %67
  %72 = load i32*, i32** %11, align 8
  %73 = load i32, i32* %9, align 4
  %74 = sext i32 %73 to i64
  %75 = getelementptr inbounds i32, i32* %72, i64 %74
  %76 = getelementptr inbounds i32, i32* %75, i64 -1
  %77 = load i32, i32* %76, align 4
  %78 = call i32 (i8*, ...) @printf(i8* getelementptr inbounds ([4 x i8], [4 x i8]* @.str.2, i64 0, i64 0), i32 %77)
  br label %79

79:                                               ; preds = %71, %67, %64, %60, %47
  br label %80

80:                                               ; preds = %79
  %81 = load i32, i32* %6, align 4
  %82 = add nsw i32 %81, 1
  store i32 %82, i32* %6, align 4
  br label %43

83:                                               ; preds = %43
  br label %84

84:                                               ; preds = %83
  %85 = load i32, i32* %7, align 4
  %86 = add nsw i32 %85, 1
  store i32 %86, i32* %7, align 4
  br label %36

87:                                               ; preds = %36
  %88 = load i32, i32* %1, align 4
  ret i32 %88
}

declare dso_local i32 @__isoc99_scanf(i8*, ...) #1

; Function Attrs: nounwind
declare dso_local noalias i8* @malloc(i64) #2

declare dso_local i32 @printf(i8*, ...) #1


!llvm.module.flags = !{!0}
!llvm.ident = !{!1}

!0 = !{i32 1, !"wchar_size", i32 4}
!1 = !{!"clang version 10.0.0-4ubuntu1 "}
